Certificate:
    Data:
        Version: 3 (0x2)
        Serial Number: 4260803814309766200 (0x3b216a7e91902438)
        Signature Algorithm: sha1WithRSAEncryption
        Issuer: street = 2 P. Volov Str., CN = StampIT Primary Root CA, O = Information Services Plc., L = Sofia, ST = B:831641791, C = BG
        Validity
            Not Before: Nov 11 15:13:34 2010 GMT
            Not After : Nov 11 15:13:34 2030 GMT
        Subject: street = 2 P. Volov Str., CN = StampIT Primary Root CA, O = Information Services Plc., L = Sofia, ST = B:831641791, C = BG
        Subject Public Key Info:
            Public Key Algorithm: rsaEncryption
                RSA Public-Key: (4096 bit)
                Modulus:
                    00:be:b4:b8:36:52:47:a8:4f:9e:0d:2b:c6:76:c2:
                    86:1a:e9:fe:1e:90:56:8a:29:0c:64:7d:52:b4:26:
                    85:56:47:01:a7:9c:46:e6:27:42:04:72:29:17:5f:
                    f6:de:73:04:32:60:8f:23:22:44:b8:f4:3d:a4:74:
                    37:81:6e:04:e1:32:3e:20:f8:df:39:b7:04:0a:18:
                    0e:e0:b4:b3:dd:d2:73:3b:18:93:35:fe:3b:86:19:
                    b1:d4:08:f3:a2:46:ce:fc:63:b2:1c:bd:54:cc:56:
                    39:23:ad:e4:d5:f2:45:aa:b0:dc:a2:8b:bb:d6:ed:
                    fb:4b:eb:09:73:ea:45:b9:6b:75:cc:74:dd:b4:9d:
                    54:5e:60:26:99:52:87:34:ee:2f:9b:f4:d7:cb:c2:
                    dd:87:fd:60:e0:98:12:61:70:18:11:9c:d4:3e:70:
                    fd:30:2b:e2:c8:ea:e8:ae:0f:ac:a4:b6:8c:95:a7:
                    e6:44:23:39:6d:9b:01:62:a4:6a:db:38:9e:aa:86:
                    fa:eb:a8:a3:32:b6:da:b9:41:06:16:7f:19:5c:43:
                    bc:48:75:cc:7c:9b:13:a9:4e:c0:2c:4a:f5:70:96:
                    c9:f8:e6:2d:34:b9:4d:23:a9:d0:09:6f:0b:a9:a5:
                    b3:fc:ff:e6:8c:f0:31:86:44:04:67:75:ae:f9:08:
                    54:db:cd:56:60:fd:f7:fe:7f:13:22:6b:f2:e2:19:
                    02:b0:73:bf:33:e1:28:7a:33:2e:e7:6c:86:6b:77:
                    52:75:2e:6b:b5:07:13:c1:4a:56:13:1c:63:c6:2b:
                    95:98:90:eb:c9:f6:7b:41:69:ab:69:2c:e1:3d:36:
                    88:62:8d:83:a8:6d:35:a5:ae:ea:56:6a:ca:61:19:
                    84:cb:1a:4e:ef:cf:39:83:06:c7:ea:6a:00:8d:0e:
                    cb:d8:4b:01:11:12:49:80:70:4e:bb:fa:8c:e1:9d:
                    09:3e:19:a6:ee:27:3e:bf:8a:5e:e9:89:72:ff:14:
                    4e:4d:94:d2:6a:6f:a6:31:82:31:d5:f4:62:12:68:
                    3d:f3:ab:30:ba:ef:7b:b8:0b:87:90:b4:fd:d3:08:
                    9e:b0:d2:d0:27:52:17:0a:55:37:d2:d6:82:13:90:
                    91:e0:0a:9f:b4:11:e6:b8:79:0e:23:d0:3a:fb:11:
                    81:22:a3:52:2b:6d:3c:39:db:52:88:cd:46:73:e2:
                    a8:73:86:d8:0e:3d:f3:98:48:84:a4:c5:02:10:ad:
                    38:09:51:d6:51:f1:49:00:e8:ba:6c:01:a7:cb:5e:
                    20:b1:28:a9:25:8e:5f:00:55:43:2a:56:d6:07:75:
                    db:c6:2a:71:d2:aa:7d:cc:8b:64:16:7f:21:72:33:
                    6e:e7:2b
                Exponent: 65537 (0x10001)
        X509v3 extensions:
            X509v3 Subject Key Identifier: 
                DC:16:54:EB:73:82:6F:69:60:F9:2F:52:07:5B:C5:A5:F0:7F:C6:20
            X509v3 Basic Constraints: critical
                CA:TRUE
            X509v3 Authority Key Identifier: 
                keyid:DC:16:54:EB:73:82:6F:69:60:F9:2F:52:07:5B:C5:A5:F0:7F:C6:20

            X509v3 Certificate Policies: 
                Policy: 1.3.6.1.4.1.11290.1.1
                  CPS: http://www.stampit.org/repository/

            X509v3 Key Usage: critical
                Certificate Sign, CRL Sign
    Signature Algorithm: sha1WithRSAEncryption
         3a:5f:d9:46:4b:9f:7f:8e:16:1f:a3:61:28:74:a2:22:39:33:
         67:78:9a:f3:cc:e5:98:01:23:a6:50:03:33:b5:40:3b:d7:a2:
         c8:35:e6:17:38:86:d6:0d:95:35:b6:cd:7b:10:18:23:83:86:
         9a:bd:b5:f0:7a:3d:da:4a:2c:3f:28:f0:f6:95:2f:37:10:ad:
         81:ed:11:f9:61:9d:df:9c:3f:28:2f:06:46:43:9e:12:0e:a6:
         82:be:f7:a6:97:e9:7a:58:9a:76:9c:96:37:e5:63:e6:81:ec:
         ed:88:5e:2d:cb:06:6e:60:71:28:7b:35:9e:b2:5f:39:f7:16:
         01:84:82:a9:71:c6:84:be:24:c4:41:eb:92:f5:d6:1e:6d:8b:
         60:1e:75:fb:b3:5c:bb:da:5c:8b:5e:22:84:65:94:36:80:c2:
         53:ea:ac:a6:dd:c5:ff:f7:c6:30:97:54:c7:f1:66:a5:41:40:
         d0:b1:ad:05:4a:d5:4d:92:07:e5:0b:ba:67:ff:13:dc:80:bb:
         69:86:47:47:16:2d:02:89:bb:8f:b9:40:eb:52:7f:a6:13:18:
         cb:8f:5f:6d:c9:39:f6:90:88:fc:93:a3:98:ca:d5:c6:f5:e0:
         20:ea:1c:35:ff:e3:b4:0a:6a:a4:0a:06:9c:d2:cb:1e:30:b1:
         d5:4c:8a:98:b9:2b:a0:92:06:64:57:df:a0:9a:87:d4:1b:97:
         89:f9:7f:bf:48:87:eb:c3:9d:73:11:d7:39:3b:c7:49:4c:60:
         4b:62:88:25:08:9b:d4:67:19:5a:28:15:c1:3b:13:d9:32:7c:
         91:09:a1:7b:db:02:f4:d1:f0:f0:22:31:88:37:9e:0e:f6:95:
         57:97:1d:0b:c0:1c:75:57:3a:f5:cb:28:e0:8f:2a:f8:b7:6a:
         ee:15:c5:d9:22:89:24:e0:bf:1a:a4:54:30:d2:c7:65:ae:33:
         3c:b0:bf:24:4c:09:ad:76:6b:4c:38:af:19:1a:18:86:0c:0f:
         87:d5:25:ca:8f:dd:36:8a:f4:11:f2:1f:37:32:04:3e:2c:33:
         f6:d4:71:d1:38:d1:f4:3a:a8:4f:da:73:f7:36:2f:0d:70:7c:
         b1:67:8b:7b:1d:d9:de:c1:bf:c9:d5:35:15:0d:35:d9:de:1d:
         be:4b:3c:53:8d:4c:79:9d:3e:85:93:40:8c:93:ff:7a:65:bc:
         a5:b2:db:3e:8c:d7:36:44:10:a0:51:c1:43:41:05:0c:bd:76:
         4d:56:73:d6:97:ad:fd:0f:48:56:15:e8:d9:7c:b8:ee:b9:db:
         07:15:3e:4f:da:d9:30:c2:93:a9:0b:9b:97:b6:3b:fe:6b:72:
         1b:37:20:c5:e6:fc:f7:51
-----BEGIN CERTIFICATE-----
MIIGWTCCBEGgAwIBAgIIOyFqfpGQJDgwDQYJKoZIhvcNAQEFBQAwgZMxGDAWBgNV
BAkMDzIgUC4gVm9sb3YgU3RyLjEgMB4GA1UEAwwXU3RhbXBJVCBQcmltYXJ5IFJv
b3QgQ0ExIjAgBgNVBAoMGUluZm9ybWF0aW9uIFNlcnZpY2VzIFBsYy4xDjAMBgNV
BAcMBVNvZmlhMRQwEgYDVQQIDAtCOjgzMTY0MTc5MTELMAkGA1UEBhMCQkcwHhcN
MTAxMTExMTUxMzM0WhcNMzAxMTExMTUxMzM0WjCBkzEYMBYGA1UECQwPMiBQLiBW
b2xvdiBTdHIuMSAwHgYDVQQDDBdTdGFtcElUIFByaW1hcnkgUm9vdCBDQTEiMCAG
A1UECgwZSW5mb3JtYXRpb24gU2VydmljZXMgUGxjLjEOMAwGA1UEBwwFU29maWEx
FDASBgNVBAgMC0I6ODMxNjQxNzkxMQswCQYDVQQGEwJCRzCCAiIwDQYJKoZIhvcN
AQEBBQADggIPADCCAgoCggIBAL60uDZSR6hPng0rxnbChhrp/h6QVoopDGR9UrQm
hVZHAaecRuYnQgRyKRdf9t5zBDJgjyMiRLj0PaR0N4FuBOEyPiD43zm3BAoYDuC0
s93SczsYkzX+O4YZsdQI86JGzvxjshy9VMxWOSOt5NXyRaqw3KKLu9bt+0vrCXPq
Rblrdcx03bSdVF5gJplShzTuL5v018vC3Yf9YOCYEmFwGBGc1D5w/TAr4sjq6K4P
rKS2jJWn5kQjOW2bAWKkats4nqqG+uuoozK22rlBBhZ/GVxDvEh1zHybE6lOwCxK
9XCWyfjmLTS5TSOp0AlvC6mls/z/5ozwMYZEBGd1rvkIVNvNVmD99/5/EyJr8uIZ
ArBzvzPhKHozLudshmt3UnUua7UHE8FKVhMcY8YrlZiQ68n2e0Fpq2ks4T02iGKN
g6htNaWu6lZqymEZhMsaTu/POYMGx+pqAI0Oy9hLARESSYBwTrv6jOGdCT4Zpu4n
Pr+KXumJcv8UTk2U0mpvpjGCMdX0YhJoPfOrMLrve7gLh5C0/dMInrDS0CdSFwpV
N9LWghOQkeAKn7QR5rh5DiPQOvsRgSKjUittPDnbUojNRnPiqHOG2A4985hIhKTF
AhCtOAlR1lHxSQDoumwBp8teILEoqSWOXwBVQypW1gd128YqcdKqfcyLZBZ/IXIz
bucrAgMBAAGjga4wgaswHQYDVR0OBBYEFNwWVOtzgm9pYPkvUgdbxaXwf8YgMA8G
A1UdEwEB/wQFMAMBAf8wHwYDVR0jBBgwFoAU3BZU63OCb2lg+S9SB1vFpfB/xiAw
SAYDVR0gBEEwPzA9BgkrBgEEAdgaAQEwMDAuBggrBgEFBQcCARYiaHR0cDovL3d3
dy5zdGFtcGl0Lm9yZy9yZXBvc2l0b3J5LzAOBgNVHQ8BAf8EBAMCAQYwDQYJKoZI
hvcNAQEFBQADggIBADpf2UZLn3+OFh+jYSh0oiI5M2d4mvPM5ZgBI6ZQAzO1QDvX
osg15hc4htYNlTW2zXsQGCODhpq9tfB6PdpKLD8o8PaVLzcQrYHtEflhnd+cPygv
BkZDnhIOpoK+96aX6XpYmnacljflY+aB7O2IXi3LBm5gcSh7NZ6yXzn3FgGEgqlx
xoS+JMRB65L11h5ti2AedfuzXLvaXIteIoRllDaAwlPqrKbdxf/3xjCXVMfxZqVB
QNCxrQVK1U2SB+ULumf/E9yAu2mGR0cWLQKJu4+5QOtSf6YTGMuPX23JOfaQiPyT
o5jK1cb14CDqHDX/47QKaqQKBpzSyx4wsdVMipi5K6CSBmRX36Cah9Qbl4n5f79I
h+vDnXMR1zk7x0lMYEtiiCUIm9RnGVooFcE7E9kyfJEJoXvbAvTR8PAiMYg3ng72
lVeXHQvAHHVXOvXLKOCPKvi3au4VxdkiiSTgvxqkVDDSx2WuMzywvyRMCa12a0w4
rxkaGIYMD4fVJcqP3TaK9BHyHzcyBD4sM/bUcdE40fQ6qE/ac/c2Lw1wfLFni3sd
2d7Bv8nVNRUNNdneHb5LPFONTHmdPoWTQIyT/3plvKWy2z6M1zZEEKBRwUNBBQy9
dk1Wc9aXrf0PSFYV6Nl8uO652wcVPk/a2TDCk6kLm5e2O/5rchs3IMXm/PdR
-----END CERTIFICATE-----
