Certificate:
    Data:
        Version: 3 (0x2)
        Serial Number: 475662661287390619 (0x699e4ab96f3ad9b)
        Signature Algorithm: sha256WithRSAEncryption
        Issuer: CN = StampIT Global Root CA, organizationIdentifier = NTRBG-831641791, O = Information Services JSC, L = Sofia, C = BG
        Validity
            Not Before: May 14 16:44:47 2017 GMT
            Not After : May 13 16:44:47 2037 GMT
        Subject: CN = StampIT Global Qualified CA, organizationIdentifier = NTRBG-831641791, O = Information Services JSC, L = Sofia, C = BG
        Subject Public Key Info:
            Public Key Algorithm: rsaEncryption
                RSA Public-Key: (4096 bit)
                Modulus:
                    00:92:60:3e:ed:6a:61:3d:7a:73:54:0d:b8:22:32:
                    38:ff:f9:d6:cd:dc:1f:65:f6:df:54:59:2f:3b:d5:
                    6e:17:85:7c:1b:e3:e5:12:f1:65:26:e8:c9:e4:d7:
                    21:08:12:69:ef:c7:a3:56:cd:9b:f0:78:5d:a6:fb:
                    a7:a4:f8:3e:9e:6d:6c:2b:7f:a7:38:80:19:9f:e3:
                    cc:46:ff:55:bd:be:fe:70:7a:db:03:f1:93:05:bc:
                    c0:58:c8:3a:05:73:6d:31:d6:3d:63:34:54:e6:e2:
                    ea:13:26:9b:5b:9d:dd:1a:2e:d4:8d:b8:91:4b:09:
                    63:d8:90:a9:db:3f:3a:57:9f:5d:4b:35:e9:7f:e0:
                    00:9a:0b:df:5d:62:f7:e1:3c:95:5a:fe:bf:2d:66:
                    90:87:ea:15:2b:b3:78:f0:f5:a5:a1:c7:5d:8e:e2:
                    b3:9b:55:bd:d5:ab:bd:42:a9:44:a2:37:60:ba:44:
                    4f:69:00:43:6d:66:4b:fa:00:0b:20:b5:20:a2:f4:
                    4a:3e:f1:42:cc:5e:7a:55:8b:ba:cc:8c:9a:63:29:
                    ee:d6:4f:e0:a8:97:cc:1c:1b:8d:92:06:6f:2e:b4:
                    b6:cc:1f:b1:74:c9:34:b5:88:82:be:50:5d:89:56:
                    e7:9a:f3:36:c1:bb:6d:df:3f:d9:a0:57:5f:78:3a:
                    95:c9:75:f9:7f:89:59:e6:d6:e6:87:1b:02:17:a7:
                    d4:a6:80:2c:07:9c:e1:d0:89:ee:6c:6d:27:e0:1d:
                    0c:db:ad:d6:ba:9a:5c:e4:77:9a:40:ab:eb:b8:d9:
                    52:21:6d:d1:20:4b:f2:9a:cd:44:12:c8:16:ff:96:
                    b4:96:6f:9f:78:83:89:57:07:19:fa:21:b2:b7:b8:
                    d8:3c:ae:6b:88:ab:e3:38:e5:0e:62:45:c2:06:66:
                    b4:af:3a:2a:cb:b7:09:f5:38:18:5d:dd:4f:7c:68:
                    81:9d:ba:43:78:7c:5c:cf:5d:c1:78:f3:e3:6f:ac:
                    40:ce:99:be:09:f0:bd:95:c9:35:d8:07:ed:56:54:
                    68:b8:0e:5f:57:33:d8:81:ff:a9:54:ff:8d:cf:42:
                    03:73:7b:71:55:c0:28:8e:d9:3e:c8:94:51:1f:28:
                    e0:4f:67:21:bb:1f:9d:27:60:e6:23:7c:fb:55:cc:
                    26:af:fe:f0:66:20:aa:d1:b5:b2:1a:b2:79:22:3e:
                    b8:b8:16:68:9a:67:f2:74:63:3b:51:93:78:4d:94:
                    48:cc:54:7b:e3:de:ee:ae:57:f6:6a:d7:b9:b0:55:
                    be:60:4f:01:69:c3:59:26:bb:f7:21:11:b6:d3:fc:
                    c9:14:6f:c7:4a:d2:d3:d6:fd:67:8c:ae:b8:c7:1f:
                    f6:e2:e5
                Exponent: 65537 (0x10001)
        X509v3 extensions:
            Authority Information Access: 
                CA Issuers - URI:http://www.stampit.org/repository/stampit_global_root_ca.crt
                OCSP - URI:http://ocsp.stampit.org/

            X509v3 Subject Key Identifier: 
                C6:DC:6E:96:41:11:D6:1F:32:FF:11:BD:B6:51:2A:E4:E9:11:43:50
            X509v3 Basic Constraints: critical
                CA:TRUE, pathlen:0
            X509v3 Authority Key Identifier: 
                keyid:FE:70:4B:DD:C8:22:A8:5F:1D:20:83:D0:6A:43:24:A7:83:7B:8A:8E

            X509v3 Certificate Policies: 
                Policy: 1.3.6.1.4.1.11290.1.2.1
                  CPS: http://www.stampit.org/repository/

            X509v3 CRL Distribution Points: 

                Full Name:
                  URI:http://www.stampit.org/crl/stampit_global.crl

            X509v3 Key Usage: critical
                Certificate Sign, CRL Sign
    Signature Algorithm: sha256WithRSAEncryption
         13:f7:86:f2:22:82:1b:f6:05:b5:ad:84:fc:1d:ec:e4:57:bd:
         35:01:b1:93:db:f3:a3:25:b3:3b:e2:66:43:0b:b6:a3:f3:86:
         8b:56:81:12:92:d4:f5:7a:a8:21:5f:ef:14:12:6f:45:e6:19:
         9f:60:2a:a1:28:97:e8:d9:39:44:8c:1e:6f:10:43:a5:c7:81:
         e5:18:4f:f6:69:6e:a2:ad:77:d1:45:bd:0b:2c:36:99:72:18:
         95:02:03:cc:1f:2f:44:51:28:ce:b6:62:39:66:f8:f9:8e:52:
         1e:f9:71:1f:2f:6d:3c:5f:1e:bc:22:e1:09:6f:df:c7:57:42:
         cc:4d:35:c2:d7:a7:03:d6:77:65:d2:d4:a5:64:89:47:80:f3:
         c7:51:ea:d1:7c:1d:8f:bd:14:f3:52:ce:29:3f:f5:9a:4f:1e:
         4b:43:f8:bd:d1:d5:96:be:69:45:c3:f4:f2:fd:41:1a:d6:f4:
         cf:d0:6b:28:08:2c:b9:d6:77:47:ed:04:2b:01:77:89:f1:70:
         6e:38:fc:b9:04:7e:68:08:30:4a:dc:23:0a:89:0d:ed:ad:58:
         61:57:96:63:7b:e3:c5:59:2c:64:11:df:62:be:8a:49:d0:c8:
         72:1e:63:30:b4:47:07:ca:57:31:ab:44:a4:1a:67:89:5a:dc:
         d9:cf:6b:a3:d3:e7:2b:d7:e0:24:fd:d2:7d:3d:15:0e:7a:a9:
         f9:72:61:01:a9:37:8e:bb:44:21:ab:54:29:d4:ca:3d:e8:ef:
         eb:66:d7:c7:60:07:b8:d6:eb:4c:5f:52:f9:b3:f6:ea:d0:ab:
         43:67:9c:2c:be:11:66:1b:83:d6:9a:de:ba:9d:ba:f5:9d:a2:
         df:3c:fc:d0:e9:f7:d2:bd:20:19:1d:63:35:6b:1a:58:e9:dd:
         02:30:a9:84:dd:8f:5a:ca:5f:f0:dc:fb:41:78:dd:c4:77:6f:
         21:c1:f6:69:b4:46:17:63:04:b6:d4:1d:af:b4:ec:33:e2:e7:
         dd:8f:8e:f3:d0:17:b6:d4:1b:07:3d:f7:08:5b:17:b0:47:ee:
         ed:d3:86:70:8a:5e:73:6f:3e:fa:70:6d:35:63:16:4e:ef:ec:
         c2:9d:06:1b:a1:e0:a3:d5:1c:f8:26:b0:43:a8:59:a7:95:40:
         2c:a3:a6:84:a1:7b:64:a7:3c:94:42:ca:c0:2c:68:9a:a7:0a:
         b3:f8:24:2a:6b:27:24:30:9f:4a:f8:04:d4:e1:1f:70:39:0c:
         b0:69:43:92:27:9d:c0:97:7d:4f:e0:78:c8:c2:7d:a2:19:e5:
         30:75:66:0a:2e:c1:87:c3:af:84:83:93:3d:b2:9d:76:22:9c:
         7e:2f:52:6c:fc:32:dc:9e
-----BEGIN CERTIFICATE-----
MIIG8zCCBNugAwIBAgIIBpnkq5bzrZswDQYJKoZIhvcNAQELBQAwezEfMB0GA1UE
AwwWU3RhbXBJVCBHbG9iYWwgUm9vdCBDQTEYMBYGA1UEYQwPTlRSQkctODMxNjQx
NzkxMSEwHwYDVQQKDBhJbmZvcm1hdGlvbiBTZXJ2aWNlcyBKU0MxDjAMBgNVBAcM
BVNvZmlhMQswCQYDVQQGEwJCRzAeFw0xNzA1MTQxNjQ0NDdaFw0zNzA1MTMxNjQ0
NDdaMIGAMSQwIgYDVQQDDBtTdGFtcElUIEdsb2JhbCBRdWFsaWZpZWQgQ0ExGDAW
BgNVBGEMD05UUkJHLTgzMTY0MTc5MTEhMB8GA1UECgwYSW5mb3JtYXRpb24gU2Vy
dmljZXMgSlNDMQ4wDAYDVQQHDAVTb2ZpYTELMAkGA1UEBhMCQkcwggIiMA0GCSqG
SIb3DQEBAQUAA4ICDwAwggIKAoICAQCSYD7tamE9enNUDbgiMjj/+dbN3B9l9t9U
WS871W4XhXwb4+US8WUm6Mnk1yEIEmnvx6NWzZvweF2m+6ek+D6ebWwrf6c4gBmf
48xG/1W9vv5wetsD8ZMFvMBYyDoFc20x1j1jNFTm4uoTJptbnd0aLtSNuJFLCWPY
kKnbPzpXn11LNel/4ACaC99dYvfhPJVa/r8tZpCH6hUrs3jw9aWhx12O4rObVb3V
q71CqUSiN2C6RE9pAENtZkv6AAsgtSCi9Eo+8ULMXnpVi7rMjJpjKe7WT+Col8wc
G42SBm8utLbMH7F0yTS1iIK+UF2JVuea8zbBu23fP9mgV194OpXJdfl/iVnm1uaH
GwIXp9SmgCwHnOHQie5sbSfgHQzbrda6mlzkd5pAq+u42VIhbdEgS/KazUQSyBb/
lrSWb594g4lXBxn6IbK3uNg8rmuIq+M45Q5iRcIGZrSvOirLtwn1OBhd3U98aIGd
ukN4fFzPXcF48+NvrEDOmb4J8L2VyTXYB+1WVGi4Dl9XM9iB/6lU/43PQgNze3FV
wCiO2T7IlFEfKOBPZyG7H50nYOYjfPtVzCav/vBmIKrRtbIasnkiPri4FmiaZ/J0
YztRk3hNlEjMVHvj3u6uV/Zq17mwVb5gTwFpw1kmu/chEbbT/MkUb8dK0tPW/WeM
rrjHH/bi5QIDAQABo4IBczCCAW8wfgYIKwYBBQUHAQEEcjBwMEgGCCsGAQUFBzAC
hjxodHRwOi8vd3d3LnN0YW1waXQub3JnL3JlcG9zaXRvcnkvc3RhbXBpdF9nbG9i
YWxfcm9vdF9jYS5jcnQwJAYIKwYBBQUHMAGGGGh0dHA6Ly9vY3NwLnN0YW1waXQu
b3JnLzAdBgNVHQ4EFgQUxtxulkER1h8y/xG9tlEq5OkRQ1AwEgYDVR0TAQH/BAgw
BgEB/wIBADAfBgNVHSMEGDAWgBT+cEvdyCKoXx0gg9BqQySng3uKjjBJBgNVHSAE
QjBAMD4GCisGAQQB2BoBAgEwMDAuBggrBgEFBQcCARYiaHR0cDovL3d3dy5zdGFt
cGl0Lm9yZy9yZXBvc2l0b3J5LzA+BgNVHR8ENzA1MDOgMaAvhi1odHRwOi8vd3d3
LnN0YW1waXQub3JnL2NybC9zdGFtcGl0X2dsb2JhbC5jcmwwDgYDVR0PAQH/BAQD
AgEGMA0GCSqGSIb3DQEBCwUAA4ICAQAT94byIoIb9gW1rYT8HezkV701AbGT2/Oj
JbM74mZDC7aj84aLVoESktT1eqghX+8UEm9F5hmfYCqhKJfo2TlEjB5vEEOlx4Hl
GE/2aW6irXfRRb0LLDaZchiVAgPMHy9EUSjOtmI5Zvj5jlIe+XEfL208Xx68IuEJ
b9/HV0LMTTXC16cD1ndl0tSlZIlHgPPHUerRfB2PvRTzUs4pP/WaTx5LQ/i90dWW
vmlFw/Ty/UEa1vTP0GsoCCy51ndH7QQrAXeJ8XBuOPy5BH5oCDBK3CMKiQ3trVhh
V5Zje+PFWSxkEd9ivopJ0MhyHmMwtEcHylcxq0SkGmeJWtzZz2uj0+cr1+Ak/dJ9
PRUOeqn5cmEBqTeOu0Qhq1Qp1Mo96O/rZtfHYAe41utMX1L5s/bq0KtDZ5wsvhFm
G4PWmt66nbr1naLfPPzQ6ffSvSAZHWM1axpY6d0CMKmE3Y9ayl/w3PtBeN3Ed28h
wfZptEYXYwS21B2vtOwz4ufdj47z0Be21BsHPfcIWxewR+7t04Zwil5zbz76cG01
YxZO7+zCnQYboeCj1Rz4JrBDqFmnlUAso6aEoXtkpzyUQsrALGiapwqz+CQqayck
MJ9K+ATU4R9wOQywaUOSJ53Al31P4HjIwn2iGeUwdWYKLsGHw6+Eg5M9sp12Ipx+
L1Js/DLcng==
-----END CERTIFICATE-----
